; Function Attrs: nounwind uwtable
define internal void @Range_Decode_7z(ptr noundef captures(none) %0, i32 noundef %1, i32 noundef %2) #4 {
  %4 = getelementptr inbounds nuw i8, ptr %0, i64 24
  %5 = load i32, ptr %4, align 8, !tbaa !37
  %6 = mul i32 %5, %1
  %7 = getelementptr inbounds nuw i8, ptr %0, i64 28
  %8 = load i32, ptr %7, align 4, !tbaa !38
  %9 = sub i32 %8, %6
  store i32 %9, ptr %7, align 4, !tbaa !38
  %10 = mul i32 %5, %2
  store i32 %10, ptr %4, align 8, !tbaa !37
  %11 = getelementptr inbounds nuw i8, ptr %0, i64 36
  %12 = getelementptr inbounds nuw i8, ptr %0, i64 32
  %13 = getelementptr inbounds nuw i8, ptr %0, i64 40
  %.pre.i = load i32, ptr %12, align 8, !tbaa !36
  br label %14

14:                                               ; preds = %27, %3
  %15 = phi i32 [ %34, %27 ], [ %9, %3 ]
  %16 = phi i32 [ %36, %27 ], [ %10, %3 ]
  %17 = phi i32 [ %38, %27 ], [ %.pre.i, %3 ]
  %18 = add i32 %17, %16
  %19 = xor i32 %18, %17
  %20 = icmp ugt i32 %19, 16777215
  br i1 %20, label %21, label %27

21:                                               ; preds = %14
  %22 = load i32, ptr %11, align 4, !tbaa !35
  %.not.i = icmp ult i32 %16, %22
  br i1 %.not.i, label %23, label %Range_Normalize.exit

23:                                               ; preds = %21
  %24 = sub nsw i32 0, %17
  %25 = add i32 %22, -1
  %26 = and i32 %25, %24
  store i32 %26, ptr %4, align 8, !tbaa !37
  br label %27

27:                                               ; preds = %23, %14
  %28 = shl i32 %15, 8
  %29 = load ptr, ptr %13, align 8, !tbaa !31
  %30 = getelementptr inbounds nuw i8, ptr %29, i64 8
  %31 = load ptr, ptr %30, align 8, !tbaa !32
  %32 = tail call zeroext i8 %31(ptr noundef %29) #13
  %33 = zext i8 %32 to i32
  %34 = or disjoint i32 %28, %33
  store i32 %34, ptr %7, align 4, !tbaa !38
  %35 = load i32, ptr %4, align 8, !tbaa !37
  %36 = shl i32 %35, 8
  store i32 %36, ptr %4, align 8, !tbaa !37
  %37 = load i32, ptr %12, align 8, !tbaa !36
  %38 = shl i32 %37, 8
  store i32 %38, ptr %12, align 8, !tbaa !36
  br label %14

Range_Normalize.exit:                             ; preds = %21
  ret void
}